(lp0
F0.996587
aF0.972723
aF0.91178
aF0.888032
aF0.990668
aF0.966763
aF0.906025
aF0.882084
aF0.950941
aF0.926565
aF0.865868
aF0.842189
aF0.944696
aF0.921006
aF0.859774
aF0.836105
aF0.79524
aF0.819961
aF0.879459
aF0.904132
aF0.80047
aF0.824955
aF0.885379
aF0.910416
aF0.842135
aF0.866804
aF0.927028
aF0.951514
aF0.848168
aF0.872598
aF0.932711
aF0.957726
aF0.979275
aF0.955467
aF0.894512
aF0.870784
aF0.973408
aF0.949629
aF0.8886
aF0.864693
aF0.933425
aF0.909488
aF0.848109
aF0.824379
aF0.927603
aF0.903873
aF0.842517
aF0.818701
aF0.812412
aF0.837096
aF0.8972
aF0.921409
aF0.817911
aF0.842647
aF0.903064
aF0.92775
aF0.859349
aF0.883705
aF0.944551
aF0.9689
aF0.865278
aF0.889789
aF0.95015
aF0.974822
aF0.995218
aF0.97143
aF0.910487
aF0.886465
aF0.989287
aF0.965624
aF0.904465
aF0.88079
aF0.949414
aF0.925313
aF0.86448
aF0.840195
aF0.942925
aF0.919362
aF0.85865
aF0.834653
aF0.796127
aF0.820468
aF0.880782
aF0.905087
aF0.801827
aF0.826527
aF0.887046
aF0.911565
aF0.843785
aF0.868258
aF0.928344
aF0.952897
aF0.849584
aF0.874175
aF0.934333
aF0.958928
aF0.977858
aF0.954101
aF0.893123
aF0.869165
aF0.972126
aF0.948227
aF0.887083
aF0.86295
aF0.931931
aF0.907692
aF0.846866
aF0.823277
aF0.925762
aF0.902411
aF0.840972
aF0.817318
aF0.81325
aF0.838006
aF0.898417
aF0.922991
aF0.819848
aF0.843952
aF0.904143
aF0.92882
aF0.860859
aF0.885301
aF0.945534
aF0.970466
aF0.866987
aF0.89115
aF0.951717
aF0.976232
aF0.983223
aF0.959057
aF0.898361
aF0.874423
aF0.977324
aF0.9533
aF0.89212
aF0.868183
aF0.936959
aF0.913117
aF0.852096
aF0.828265
aF0.931014
aF0.907094
aF0.8461
aF0.822509
aF0.809073
aF0.832921
aF0.892716
aF0.917428
aF0.813963
aF0.838111
aF0.898899
aF0.923302
aF0.855714
aF0.880583
aF0.940459
aF0.96498
aF0.861292
aF0.886355
aF0.946597
aF0.971039
aF0.965727
aF0.941631
aF0.880845
aF0.85667
aF0.959946
aF0.936036
aF0.875021
aF0.851529
aF0.919847
aF0.895476
aF0.834545
aF0.810305
aF0.913592
aF0.889983
aF0.828976
aF0.804689
aF0.825811
aF0.850291
aF0.910286
aF0.934896
aF0.831645
aF0.855628
aF0.916246
aF0.941306
aF0.873263
aF0.897719
aF0.957725
aF0.982388
aF0.879301
aF0.903486
aF0.963797
aF0.988398
aF0.981781
aF0.957808
aF0.897106
aF0.872765
aF0.97576
aF0.952056
aF0.890834
aF0.866713
aF0.935713
aF0.911863
aF0.850632
aF0.826345
aF0.929722
aF0.905897
aF0.844469
aF0.820656
aF0.809841
aF0.834048
aF0.894423
aF0.918843
aF0.815322
aF0.840381
aF0.900385
aF0.924923
aF0.857621
aF0.882165
aF0.941825
aF0.966751
aF0.863415
aF0.887914
aF0.947993
aF0.972515
aF0.964395
aF0.940359
aF0.879293
aF0.855467
aF0.9587
aF0.934665
aF0.873563
aF0.849952
aF0.918325
aF0.894422
aF0.83347
aF0.809404
aF0.912267
aF0.888605
aF0.827118
aF0.803038
aF0.826977
aF0.851855
aF0.912028
aF0.936226
aF0.832576
aF0.857176
aF0.917722
aF0.942238
aF0.874685
aF0.899527
aF0.959355
aF0.983822
aF0.880654
aF0.905227
aF0.965116
aF0.98985
aF0.990017
aF0.966187
aF0.905414
aF0.881524
aF0.984402
aF0.960535
aF0.899498
aF0.875416
aF0.943956
aF0.920213
aF0.859119
aF0.834834
aF0.938232
aF0.914297
aF0.852913
aF0.829574
aF0.801355
aF0.825543
aF0.885643
aF0.910657
aF0.806882
aF0.831738
aF0.89161
aF0.916628
aF0.848959
aF0.873465
aF0.933592
aF0.957974
aF0.854533
aF0.87923
aF0.939438
aF0.963952
aF0.972845
aF0.948961
aF0.8878
aF0.863895
aF0.967248
aF0.943202
aF0.881759
aF0.858434
aF0.926749
aF0.902843
aF0.841934
aF0.817706
aF0.920548
aF0.897157
aF0.83632
aF0.811733
aF0.819027
aF0.843759
aF0.903505
aF0.927872
aF0.824568
aF0.849069
aF0.909241
aF0.934042
aF0.866162
aF0.890884
aF0.951062
aF0.975521
aF0.871846
aF0.896445
aF0.956758
aF0.981356
aF0.988676
aF0.96496
aF0.903822
aF0.879804
aF0.982973
aF0.959076
aF0.897922
aF0.873959
aF0.942937
aF0.918796
aF0.857701
aF0.833984
aF0.936526
aF0.913213
aF0.852088
aF0.827942
aF0.802454
aF0.826959
aF0.887137
aF0.911909
aF0.80813
aF0.833264
aF0.893413
aF0.917997
aF0.850447
aF0.875001
aF0.934929
aF0.959512
aF0.856133
aF0.880357
aF0.940861
aF0.965466
aF0.97137
aF0.947441
aF0.886781
aF0.862852
aF0.96567
aF0.941975
aF0.880964
aF0.857174
aF0.925247
aF0.901554
aF0.840774
aF0.816501
aF0.919407
aF0.895451
aF0.834978
aF0.810996
aF0.82053
aF0.844815
aF0.904832
aF0.929377
aF0.825872
aF0.850629
aF0.910979
aF0.935491
aF0.867571
aF0.891798
aF0.952246
aF0.976693
aF0.873522
aF0.898087
aF0.95829
aF0.982805
aF0.976534
aF0.952622
aF0.89183
aF0.867847
aF0.970838
aF0.946785
aF0.88551
aF0.861792
aF0.93072
aF0.906712
aF0.845609
aF0.8212
aF0.924682
aF0.900929
aF0.839831
aF0.815696
aF0.815208
aF0.839068
aF0.899408
aF0.923971
aF0.820604
aF0.844886
aF0.905697
aF0.930176
aF0.861975
aF0.886998
aF0.947054
aF0.971847
aF0.868134
aF0.892881
aF0.952963
aF0.977606
aF0.959118
aF0.935552
aF0.874504
aF0.850271
aF0.953691
aF0.929404
aF0.868541
aF0.844227
aF0.913378
aF0.889756
aF0.8279
aF0.80443
aF0.907391
aF0.88326
aF0.822852
aF0.798739
aF0.832948
aF0.857165
aF0.917055
aF0.941296
aF0.83829
aF0.862923
aF0.923242
aF0.9475
aF0.87964
aF0.904317
aF0.964433
aF0.989029
aF0.885703
aF0.910321
aF0.970543
aF0.994824
aF0.975233
aF0.951429
aF0.889851
aF0.866225
aF0.969235
aF0.945482
aF0.884398
aF0.86057
aF0.929333
aF0.905139
aF0.844579
aF0.819957
aF0.923123
aF0.899397
aF0.838572
aF0.814418
aF0.816244
aF0.840948
aF0.900915
aF0.925565
aF0.822171
aF0.846603
aF0.906801
aF0.931364
aF0.863786
aF0.8886
aF0.94871
aF0.973122
aF0.869802
aF0.894417
aF0.954431
aF0.979018
aF0.958098
aF0.933957
aF0.872543
aF0.849163
aF0.952249
aF0.928227
aF0.866969
aF0.843291
aF0.912395
aF0.888262
aF0.827056
aF0.802777
aF0.90594
aF0.882107
aF0.821375
aF0.797026
aF0.833846
aF0.858292
aF0.918534
aF0.943036
aF0.839488
aF0.863864
aF0.92423
aF0.948996
aF0.881049
aF0.905898
aF0.965725
aF0.990427
aF0.887307
aF0.911829
aF0.971673
aF0.996321
a.